target datalayout = "e-m:e-p270:32:32-p271:32:32-p272:64:64-i64:64-i128:128-f80:128-n8:16:32:64-S128"
target triple = "x86_64-unknown-linux-gnu"

%struct.ecc_set_type = type { i32, i32, ptr, ptr, ptr, ptr, ptr, ptr, ptr, ptr, i32, i32, i32 }
%struct.ecc_key = type { i32, i32, i32, i32, ptr, ptr, %struct.ecc_point, [1 x %struct.sp_int], ptr }
%struct.ecc_point = type { [1 x %struct.sp_int], [1 x %struct.sp_int], [1 x %struct.sp_int] }
%struct.sp_int = type { i32, i32, [129 x i64] }
%struct.ecc_curve_spec = type { ptr, ptr, ptr, ptr, ptr, ptr, ptr, i32, i32, i8 }

; Function Attrs: nounwind uwtable
define internal i32 @ecc_verify_hash_sp(ptr noundef %r, ptr noundef %s, ptr noundef %hash, i32 noundef %hashlen, ptr noundef %res, ptr noundef %key) #0 {
entry:
  %r.addr = alloca ptr, align 8
  %s.addr = alloca ptr, align 8
  %hash.addr = alloca ptr, align 8
  %hashlen.addr = alloca i32, align 4
  %res.addr = alloca ptr, align 8
  %key.addr = alloca ptr, align 8
  store ptr %r, ptr %r.addr, align 8
  store ptr %s, ptr %s.addr, align 8
  store ptr %hash, ptr %hash.addr, align 8
  store i32 %hashlen, ptr %hashlen.addr, align 4
  store ptr %res, ptr %res.addr, align 8
  store ptr %key, ptr %key.addr, align 8
  ret i32 -174
}

; Function Attrs: nounwind uwtable
define internal i32 @wc_ecc_check_r_s_range(ptr noundef %key, ptr noundef %r, ptr noundef %s) #0 {
entry:
  %retval = alloca i32, align 4
  %key.addr = alloca ptr, align 8
  %r.addr = alloca ptr, align 8
  %s.addr = alloca ptr, align 8
  %err = alloca i32, align 4
  %spec_ints = alloca [160 x i8], align 16
  %curve_lcl = alloca %struct.ecc_curve_spec, align 8
  %curve = alloca ptr, align 8
  store ptr %key, ptr %key.addr, align 8
  store ptr %r, ptr %r.addr, align 8
  store ptr %s, ptr %s.addr, align 8
  store i32 0, ptr %err, align 4
  store ptr %curve_lcl, ptr %curve, align 8
  %0 = load ptr, ptr %curve, align 8
  call void @llvm.memset.p0.i64(ptr align 8 %0, i8 0, i64 72, i1 false)
  %arraydecay = getelementptr inbounds [160 x i8], ptr %spec_ints, i64 0, i64 0
  %1 = load ptr, ptr %curve, align 8
  %spec_ints1 = getelementptr inbounds %struct.ecc_curve_spec, ptr %1, i32 0, i32 6
  store ptr %arraydecay, ptr %spec_ints1, align 8
  %2 = load ptr, ptr %curve, align 8
  %spec_count = getelementptr inbounds %struct.ecc_curve_spec, ptr %2, i32 0, i32 7
  store i32 1, ptr %spec_count, align 8
  br label %do.body

do.body:                                          ; preds = %entry
  br label %do.end

do.end:                                           ; preds = %do.body
  %3 = load i32, ptr %err, align 4
  %cmp = icmp eq i32 %3, 0
  br i1 %cmp, label %if.then, label %if.end

if.then:                                          ; preds = %do.end
  %4 = load ptr, ptr %key.addr, align 8
  %dp = getelementptr inbounds %struct.ecc_key, ptr %4, i32 0, i32 4
  %5 = load ptr, ptr %dp, align 8
  %call = call i32 @wc_ecc_curve_load(ptr noundef %5, ptr noundef %curve, i8 noundef zeroext 8)
  store i32 %call, ptr %err, align 4
  br label %if.end

if.end:                                           ; preds = %if.then, %do.end
  %6 = load i32, ptr %err, align 4
  %cmp2 = icmp ne i32 %6, 0
  br i1 %cmp2, label %if.then3, label %if.end6

if.then3:                                         ; preds = %if.end
  br label %do.body4

do.body4:                                         ; preds = %if.then3
  br label %do.end5

do.end5:                                          ; preds = %do.body4
  %7 = load i32, ptr %err, align 4
  store i32 %7, ptr %retval, align 4
  br label %return

if.end6:                                          ; preds = %if.end
  %8 = load ptr, ptr %r.addr, align 8
  %used = getelementptr inbounds %struct.sp_int, ptr %8, i32 0, i32 0
  %9 = load i32, ptr %used, align 8
  %cmp7 = icmp eq i32 %9, 0
  br i1 %cmp7, label %if.then10, label %lor.lhs.false

lor.lhs.false:                                    ; preds = %if.end6
  %10 = load ptr, ptr %s.addr, align 8
  %used8 = getelementptr inbounds %struct.sp_int, ptr %10, i32 0, i32 0
  %11 = load i32, ptr %used8, align 8
  %cmp9 = icmp eq i32 %11, 0
  br i1 %cmp9, label %if.then10, label %if.end11

if.then10:                                        ; preds = %lor.lhs.false, %if.end6
  store i32 -121, ptr %err, align 4
  br label %if.end11

if.end11:                                         ; preds = %if.then10, %lor.lhs.false
  %12 = load i32, ptr %err, align 4
  %cmp12 = icmp eq i32 %12, 0
  br i1 %cmp12, label %land.lhs.true, label %if.end16

land.lhs.true:                                    ; preds = %if.end11
  %13 = load ptr, ptr %r.addr, align 8
  %14 = load ptr, ptr %curve, align 8
  %order = getelementptr inbounds %struct.ecc_curve_spec, ptr %14, i32 0, i32 3
  %15 = load ptr, ptr %order, align 8
  %call13 = call i32 @sp_cmp(ptr noundef %13, ptr noundef %15)
  %cmp14 = icmp ne i32 %call13, -1
  br i1 %cmp14, label %if.then15, label %if.end16

if.then15:                                        ; preds = %land.lhs.true
  store i32 -3, ptr %err, align 4
  br label %if.end16

if.end16:                                         ; preds = %if.then15, %land.lhs.true, %if.end11
  %16 = load i32, ptr %err, align 4
  %cmp17 = icmp eq i32 %16, 0
  br i1 %cmp17, label %land.lhs.true18, label %if.end23

land.lhs.true18:                                  ; preds = %if.end16
  %17 = load ptr, ptr %s.addr, align 8
  %18 = load ptr, ptr %curve, align 8
  %order19 = getelementptr inbounds %struct.ecc_curve_spec, ptr %18, i32 0, i32 3
  %19 = load ptr, ptr %order19, align 8
  %call20 = call i32 @sp_cmp(ptr noundef %17, ptr noundef %19)
  %cmp21 = icmp ne i32 %call20, -1
  br i1 %cmp21, label %if.then22, label %if.end23

if.then22:                                        ; preds = %land.lhs.true18
  store i32 -3, ptr %err, align 4
  br label %if.end23

if.end23:                                         ; preds = %if.then22, %land.lhs.true18, %if.end16
  %20 = load ptr, ptr %curve, align 8
  call void @wc_ecc_curve_free(ptr noundef %20)
  br label %do.body24

do.body24:                                        ; preds = %if.end23
  br label %do.end25

do.end25:                                         ; preds = %do.body24
  %21 = load i32, ptr %err, align 4
  store i32 %21, ptr %retval, align 4
  br label %return

return:                                           ; preds = %do.end25, %do.end5
  %22 = load i32, ptr %retval, align 4
  ret i32 %22
}

; Function Attrs: nounwind uwtable
define i32 @wc_ecc_is_valid_idx(i32 noundef %n) #0 {
entry:
  %retval = alloca i32, align 4
  %n.addr = alloca i32, align 4
  %x = alloca i32, align 4
  store i32 %n, ptr %n.addr, align 4
  %0 = load i32, ptr %n.addr, align 4
  %cmp = icmp sge i32 %0, 6
  br i1 %cmp, label %if.then, label %if.end

if.then:                                          ; preds = %entry
  store i32 0, ptr %retval, align 4
  br label %return

if.end:                                           ; preds = %entry
  store i32 0, ptr %x, align 4
  br label %for.cond

for.cond:                                         ; preds = %for.inc, %if.end
  %1 = load i32, ptr %x, align 4
  %idxprom = sext i32 %1 to i64
  %arrayidx = getelementptr inbounds [6 x %struct.ecc_set_type], ptr @ecc_sets, i64 0, i64 %idxprom
  %size = getelementptr inbounds %struct.ecc_set_type, ptr %arrayidx, i32 0, i32 0
  %2 = load i32, ptr %size, align 8
  %cmp1 = icmp ne i32 %2, 0
  br i1 %cmp1, label %for.body, label %for.end

for.body:                                         ; preds = %for.cond
  br label %for.inc

for.inc:                                          ; preds = %for.body
  %3 = load i32, ptr %x, align 4
  %inc = add nsw i32 %3, 1
  store i32 %inc, ptr %x, align 4
  br label %for.cond, !llvm.loop !12

for.end:                                          ; preds = %for.cond
  %4 = load i32, ptr %n.addr, align 4
  %cmp2 = icmp sge i32 %4, -1
  br i1 %cmp2, label %land.lhs.true, label %if.end5

land.lhs.true:                                    ; preds = %for.end
  %5 = load i32, ptr %n.addr, align 4
  %6 = load i32, ptr %x, align 4
  %cmp3 = icmp slt i32 %5, %6
  br i1 %cmp3, label %if.then4, label %if.end5

if.then4:                                         ; preds = %land.lhs.true
  store i32 1, ptr %retval, align 4
  br label %return

if.end5:                                          ; preds = %land.lhs.true, %for.end
  store i32 0, ptr %retval, align 4
  br label %return

return:                                           ; preds = %if.end5, %if.then4, %if.then
  %7 = load i32, ptr %retval, align 4
  ret i32 %7
}

; Function Attrs: nounwind uwtable
define i32 @wc_ecc_verify_hash_ex(ptr noundef %r, ptr noundef %s, ptr noundef %hash, i32 noundef %hashlen, ptr noundef %res, ptr noundef %key) #0 {
entry:
  %retval = alloca i32, align 4
  %r.addr = alloca ptr, align 8
  %s.addr = alloca ptr, align 8
  %hash.addr = alloca ptr, align 8
  %hashlen.addr = alloca i32, align 4
  %res.addr = alloca ptr, align 8
  %key.addr = alloca ptr, align 8
  %err = alloca i32, align 4
  %keySz = alloca i32, align 4
  %curveLoaded = alloca i32, align 4
  %spec_ints = alloca [800 x i8], align 16
  %curve_lcl = alloca %struct.ecc_curve_spec, align 8
  %curve = alloca ptr, align 8
  store ptr %r, ptr %r.addr, align 8
  store ptr %s, ptr %s.addr, align 8
  store ptr %hash, ptr %hash.addr, align 8
  store i32 %hashlen, ptr %hashlen.addr, align 4
  store ptr %res, ptr %res.addr, align 8
  store ptr %key, ptr %key.addr, align 8
  store i32 0, ptr %keySz, align 4
  store i32 0, ptr %curveLoaded, align 4
  store ptr %curve_lcl, ptr %curve, align 8
  %0 = load ptr, ptr %curve, align 8
  call void @llvm.memset.p0.i64(ptr align 8 %0, i8 0, i64 72, i1 false)
  %arraydecay = getelementptr inbounds [800 x i8], ptr %spec_ints, i64 0, i64 0
  %1 = load ptr, ptr %curve, align 8
  %spec_ints1 = getelementptr inbounds %struct.ecc_curve_spec, ptr %1, i32 0, i32 6
  store ptr %arraydecay, ptr %spec_ints1, align 8
  %2 = load ptr, ptr %curve, align 8
  %spec_count = getelementptr inbounds %struct.ecc_curve_spec, ptr %2, i32 0, i32 7
  store i32 5, ptr %spec_count, align 8
  %3 = load ptr, ptr %r.addr, align 8
  %cmp = icmp eq ptr %3, null
  br i1 %cmp, label %if.then, label %lor.lhs.false

lor.lhs.false:                                    ; preds = %entry
  %4 = load ptr, ptr %s.addr, align 8
  %cmp2 = icmp eq ptr %4, null
  br i1 %cmp2, label %if.then, label %lor.lhs.false3

lor.lhs.false3:                                   ; preds = %lor.lhs.false
  %5 = load ptr, ptr %hash.addr, align 8
  %cmp4 = icmp eq ptr %5, null
  br i1 %cmp4, label %if.then, label %lor.lhs.false5

lor.lhs.false5:                                   ; preds = %lor.lhs.false3
  %6 = load ptr, ptr %res.addr, align 8
  %cmp6 = icmp eq ptr %6, null
  br i1 %cmp6, label %if.then, label %lor.lhs.false7

lor.lhs.false7:                                   ; preds = %lor.lhs.false5
  %7 = load ptr, ptr %key.addr, align 8
  %cmp8 = icmp eq ptr %7, null
  br i1 %cmp8, label %if.then, label %if.end

if.then:                                          ; preds = %lor.lhs.false7, %lor.lhs.false5, %lor.lhs.false3, %lor.lhs.false, %entry
  store i32 -170, ptr %retval, align 4
  br label %return

if.end:                                           ; preds = %lor.lhs.false7
  %8 = load ptr, ptr %res.addr, align 8
  store i32 0, ptr %8, align 4
  %9 = load ptr, ptr %key.addr, align 8
  %idx = getelementptr inbounds %struct.ecc_key, ptr %9, i32 0, i32 1
  %10 = load i32, ptr %idx, align 4
  %call = call i32 @wc_ecc_is_valid_idx(i32 noundef %10)
  %cmp9 = icmp eq i32 %call, 0
  br i1 %cmp9, label %if.then12, label %lor.lhs.false10

lor.lhs.false10:                                  ; preds = %if.end
  %11 = load ptr, ptr %key.addr, align 8
  %dp = getelementptr inbounds %struct.ecc_key, ptr %11, i32 0, i32 4
  %12 = load ptr, ptr %dp, align 8
  %cmp11 = icmp eq ptr %12, null
  br i1 %cmp11, label %if.then12, label %if.end13

if.then12:                                        ; preds = %lor.lhs.false10, %if.end
  store i32 -170, ptr %retval, align 4
  br label %return

if.end13:                                         ; preds = %lor.lhs.false10
  %13 = load ptr, ptr %key.addr, align 8
  %14 = load ptr, ptr %r.addr, align 8
  %15 = load ptr, ptr %s.addr, align 8
  %call14 = call i32 @wc_ecc_check_r_s_range(ptr noundef %13, ptr noundef %14, ptr noundef %15)
  store i32 %call14, ptr %err, align 4
  %16 = load i32, ptr %err, align 4
  %cmp15 = icmp ne i32 %16, 0
  br i1 %cmp15, label %if.then16, label %if.end17

if.then16:                                        ; preds = %if.end13
  %17 = load i32, ptr %err, align 4
  store i32 %17, ptr %retval, align 4
  br label %return

if.end17:                                         ; preds = %if.end13
  %18 = load ptr, ptr %key.addr, align 8
  %dp18 = getelementptr inbounds %struct.ecc_key, ptr %18, i32 0, i32 4
  %19 = load ptr, ptr %dp18, align 8
  %size = getelementptr inbounds %struct.ecc_set_type, ptr %19, i32 0, i32 0
  %20 = load i32, ptr %size, align 8
  store i32 %20, ptr %keySz, align 4
  %21 = load ptr, ptr %key.addr, align 8
  %type = getelementptr inbounds %struct.ecc_key, ptr %21, i32 0, i32 0
  %22 = load i32, ptr %type, align 8
  %cmp19 = icmp eq i32 %22, 3
  br i1 %cmp19, label %if.then20, label %if.end41

if.then20:                                        ; preds = %if.end17
  br label %do.body

do.body:                                          ; preds = %if.then20
  br label %do.end

do.end:                                           ; preds = %do.body
  br label %do.body21

do.body21:                                        ; preds = %do.end
  br label %do.end22

do.end22:                                         ; preds = %do.body21
  %23 = load i32, ptr %err, align 4
  %cmp23 = icmp ne i32 %23, 0
  br i1 %cmp23, label %if.then24, label %if.end25

if.then24:                                        ; preds = %do.end22
  %24 = load i32, ptr %err, align 4
  store i32 %24, ptr %retval, align 4
  br label %return

if.end25:                                         ; preds = %do.end22
  %25 = load ptr, ptr %key.addr, align 8
  %dp26 = getelementptr inbounds %struct.ecc_key, ptr %25, i32 0, i32 4
  %26 = load ptr, ptr %dp26, align 8
  %call27 = call i32 @wc_ecc_curve_load(ptr noundef %26, ptr noundef %curve, i8 noundef zeroext 59)
  store i32 %call27, ptr %err, align 4
  %27 = load i32, ptr %err, align 4
  %cmp28 = icmp ne i32 %27, 0
  br i1 %cmp28, label %if.then29, label %if.end32

if.then29:                                        ; preds = %if.end25
  br label %do.body30

do.body30:                                        ; preds = %if.then29
  br label %do.end31

do.end31:                                         ; preds = %do.body30
  %28 = load i32, ptr %err, align 4
  store i32 %28, ptr %retval, align 4
  br label %return

if.end32:                                         ; preds = %if.end25
  %29 = load ptr, ptr %key.addr, align 8
  %30 = load ptr, ptr %curve, align 8
  %call33 = call i32 @ecc_make_pub_ex(ptr noundef %29, ptr noundef %30, ptr noundef null, ptr noundef null)
  store i32 %call33, ptr %err, align 4
  %31 = load i32, ptr %err, align 4
  %cmp34 = icmp ne i32 %31, 0
  br i1 %cmp34, label %if.then35, label %if.end40

if.then35:                                        ; preds = %if.end32
  br label %do.body36

do.body36:                                        ; preds = %if.then35
  br label %do.end37

do.end37:                                         ; preds = %do.body36
  %32 = load ptr, ptr %curve, align 8
  call void @wc_ecc_curve_free(ptr noundef %32)
  br label %do.body38

do.body38:                                        ; preds = %do.end37
  br label %do.end39

do.end39:                                         ; preds = %do.body38
  %33 = load i32, ptr %err, align 4
  store i32 %33, ptr %retval, align 4
  br label %return

if.end40:                                         ; preds = %if.end32
  store i32 1, ptr %curveLoaded, align 4
  br label %if.end41

if.end41:                                         ; preds = %if.end40, %if.end17
  %34 = load ptr, ptr %r.addr, align 8
  %35 = load ptr, ptr %s.addr, align 8
  %36 = load ptr, ptr %hash.addr, align 8
  %37 = load i32, ptr %hashlen.addr, align 4
  %38 = load ptr, ptr %res.addr, align 8
  %39 = load ptr, ptr %key.addr, align 8
  %call42 = call i32 @ecc_verify_hash_sp(ptr noundef %34, ptr noundef %35, ptr noundef %36, i32 noundef %37, ptr noundef %38, ptr noundef %39)
  store i32 %call42, ptr %err, align 4
  %40 = load i32, ptr %err, align 4
  %cmp43 = icmp ne i32 %40, -174
  br i1 %cmp43, label %if.then44, label %if.end49

if.then44:                                        ; preds = %if.end41
  %41 = load i32, ptr %curveLoaded, align 4
  %tobool = icmp ne i32 %41, 0
  br i1 %tobool, label %if.then45, label %if.end48

if.then45:                                        ; preds = %if.then44
  %42 = load ptr, ptr %curve, align 8
  call void @wc_ecc_curve_free(ptr noundef %42)
  br label %do.body46

do.body46:                                        ; preds = %if.then45
  br label %do.end47

do.end47:                                         ; preds = %do.body46
  br label %if.end48

if.end48:                                         ; preds = %do.end47, %if.then44
  %43 = load i32, ptr %err, align 4
  store i32 %43, ptr %retval, align 4
  br label %return

if.end49:                                         ; preds = %if.end41
  %44 = load i32, ptr %curveLoaded, align 4
  %tobool50 = icmp ne i32 %44, 0
  br i1 %tobool50, label %if.end64, label %if.then51

if.then51:                                        ; preds = %if.end49
  store i32 0, ptr %err, align 4
  br label %do.body52

do.body52:                                        ; preds = %if.then51
  br label %do.end53

do.end53:                                         ; preds = %do.body52
  %45 = load i32, ptr %err, align 4
  %cmp54 = icmp ne i32 %45, 0
  br i1 %cmp54, label %if.then55, label %if.end56

if.then55:                                        ; preds = %do.end53
  %46 = load i32, ptr %err, align 4
  store i32 %46, ptr %retval, align 4
  br label %return

if.end56:                                         ; preds = %do.end53
  %47 = load ptr, ptr %key.addr, align 8
  %dp57 = getelementptr inbounds %struct.ecc_key, ptr %47, i32 0, i32 4
  %48 = load ptr, ptr %dp57, align 8
  %call58 = call i32 @wc_ecc_curve_load(ptr noundef %48, ptr noundef %curve, i8 noundef zeroext 59)
  store i32 %call58, ptr %err, align 4
  %49 = load i32, ptr %err, align 4
  %cmp59 = icmp ne i32 %49, 0
  br i1 %cmp59, label %if.then60, label %if.end63

if.then60:                                        ; preds = %if.end56
  br label %do.body61

do.body61:                                        ; preds = %if.then60
  br label %do.end62

do.end62:                                         ; preds = %do.body61
  %50 = load i32, ptr %err, align 4
  store i32 %50, ptr %retval, align 4
  br label %return

if.end63:                                         ; preds = %if.end56
  br label %if.end64

if.end64:                                         ; preds = %if.end63, %if.end49
  %51 = load ptr, ptr %r.addr, align 8
  %52 = load ptr, ptr %s.addr, align 8
  %53 = load ptr, ptr %hash.addr, align 8
  %54 = load i32, ptr %hashlen.addr, align 4
  %55 = load ptr, ptr %res.addr, align 8
  %56 = load ptr, ptr %key.addr, align 8
  %57 = load ptr, ptr %curve, align 8
  %call65 = call i32 @ecc_verify_hash(ptr noundef %51, ptr noundef %52, ptr noundef %53, i32 noundef %54, ptr noundef %55, ptr noundef %56, ptr noundef %57)
  store i32 %call65, ptr %err, align 4
  %58 = load ptr, ptr %curve, align 8
  call void @wc_ecc_curve_free(ptr noundef %58)
  br label %do.body66

do.body66:                                        ; preds = %if.end64
  br label %do.end67

do.end67:                                         ; preds = %do.body66
  %59 = load i32, ptr %err, align 4
  store i32 %59, ptr %retval, align 4
  br label %return

return:                                           ; preds = %do.end67, %do.end62, %if.then55, %if.end48, %do.end39, %do.end31, %if.then24, %if.then16, %if.then12, %if.then
  %60 = load i32, ptr %retval, align 4
  ret i32 %60
}