; Function Attrs: nounwind uwtable
define i32 @wc_ecc_verify_hash_ex(ptr noundef %r, ptr noundef %s, ptr noundef %hash, i32 noundef %hashlen, ptr noundef writeonly %res, ptr noundef %key) local_unnamed_addr #2 {
entry:
  %spec_ints.i = alloca [160 x i8], align 16
  %curve_lcl.i = alloca %struct.ecc_curve_spec, align 8
  %spec_ints = alloca [800 x i8], align 16
  %curve_lcl = alloca %struct.ecc_curve_spec, align 8
  call void @llvm.memset.p0.i64(ptr noundef nonnull align 8 dereferenceable(72) %curve_lcl, i8 0, i64 72, i1 false)
  %spec_ints1 = getelementptr inbounds nuw i8, ptr %curve_lcl, i64 48
  store ptr %spec_ints, ptr %spec_ints1, align 8
  %spec_count = getelementptr inbounds nuw i8, ptr %curve_lcl, i64 56
  store i32 5, ptr %spec_count, align 8
  %cmp = icmp eq ptr %r, null
  %cmp2 = icmp eq ptr %s, null
  %or.cond = or i1 %cmp, %cmp2
  %cmp4 = icmp eq ptr %hash, null
  %or.cond1 = or i1 %or.cond, %cmp4
  %cmp6 = icmp eq ptr %res, null
  %or.cond2 = or i1 %or.cond1, %cmp6
  %cmp8 = icmp eq ptr %key, null
  %or.cond3 = or i1 %or.cond2, %cmp8
  br i1 %or.cond3, label %return, label %if.end

if.end:                                           ; preds = %entry
  store i32 0, ptr %res, align 4
  %idx = getelementptr inbounds nuw i8, ptr %key, i64 4
  %0 = load i32, ptr %idx, align 4
  %1 = add i32 %0, -5
  %narrow.i = icmp ult i32 %1, -6
  br i1 %narrow.i, label %return, label %lor.lhs.false10

lor.lhs.false10:                                  ; preds = %if.end
  %dp = getelementptr inbounds nuw i8, ptr %key, i64 16
  %2 = load ptr, ptr %dp, align 8
  %cmp11 = icmp eq ptr %2, null
  br i1 %cmp11, label %return, label %if.end13

if.end13:                                         ; preds = %lor.lhs.false10
  call void @llvm.lifetime.start.p0(i64 160, ptr nonnull %spec_ints.i)
  call void @llvm.lifetime.start.p0(i64 72, ptr nonnull %curve_lcl.i)
  call void @llvm.memset.p0.i64(ptr noundef nonnull align 8 dereferenceable(72) %curve_lcl.i, i8 0, i64 72, i1 false)
  %spec_ints1.i = getelementptr inbounds nuw i8, ptr %curve_lcl.i, i64 48
  store ptr %spec_ints.i, ptr %spec_ints1.i, align 8
  %spec_count.i = getelementptr inbounds nuw i8, ptr %curve_lcl.i, i64 56
  store i32 1, ptr %spec_count.i, align 8
  %call.i = call fastcc i32 @wc_ecc_curve_load(ptr noundef nonnull %2, ptr nonnull %curve_lcl.i, i8 noundef zeroext 8)
  %cmp2.not.i = icmp eq i32 %call.i, 0
  br i1 %cmp2.not.i, label %if.end6.i, label %wc_ecc_check_r_s_range.exit.thread

wc_ecc_check_r_s_range.exit.thread:               ; preds = %if.end13
  call void @llvm.lifetime.end.p0(i64 160, ptr nonnull %spec_ints.i)
  call void @llvm.lifetime.end.p0(i64 72, ptr nonnull %curve_lcl.i)
  br label %return

if.end6.i:                                        ; preds = %if.end13
  %3 = load i32, ptr %r, align 8
  %cmp7.i = icmp eq i32 %3, 0
  br i1 %cmp7.i, label %wc_ecc_check_r_s_range.exit.thread48, label %lor.lhs.false.i

lor.lhs.false.i:                                  ; preds = %if.end6.i
  %4 = load i32, ptr %s, align 8
  %cmp9.i = icmp eq i32 %4, 0
  br i1 %cmp9.i, label %wc_ecc_check_r_s_range.exit.thread48, label %land.lhs.true.i

land.lhs.true.i:                                  ; preds = %lor.lhs.false.i
  %order.i = getelementptr inbounds nuw i8, ptr %curve_lcl.i, i64 24
  %5 = load ptr, ptr %order.i, align 8
  %call13.i = call i32 @sp_cmp(ptr noundef nonnull %r, ptr noundef %5) #19
  %cmp14.not.i = icmp eq i32 %call13.i, -1
  br i1 %cmp14.not.i, label %land.lhs.true18.i, label %wc_ecc_check_r_s_range.exit.thread48

land.lhs.true18.i:                                ; preds = %land.lhs.true.i
  %6 = load ptr, ptr %order.i, align 8
  %call20.i = call i32 @sp_cmp(ptr noundef nonnull %s, ptr noundef %6) #19
  %cmp21.not.i = icmp eq i32 %call20.i, -1
  br i1 %cmp21.not.i, label %if.end17, label %wc_ecc_check_r_s_range.exit.thread48

wc_ecc_check_r_s_range.exit.thread48:             ; preds = %land.lhs.true18.i, %lor.lhs.false.i, %if.end6.i, %land.lhs.true.i
  %err.3.i.ph = phi i32 [ -3, %land.lhs.true.i ], [ -121, %if.end6.i ], [ -121, %lor.lhs.false.i ], [ -3, %land.lhs.true18.i ]
  call fastcc void @wc_ecc_curve_free(ptr noundef nonnull %curve_lcl.i)
  call void @llvm.lifetime.end.p0(i64 160, ptr nonnull %spec_ints.i)
  call void @llvm.lifetime.end.p0(i64 72, ptr nonnull %curve_lcl.i)
  br label %return

if.end17:                                         ; preds = %land.lhs.true18.i
  call fastcc void @wc_ecc_curve_free(ptr noundef nonnull %curve_lcl.i)
  call void @llvm.lifetime.end.p0(i64 160, ptr nonnull %spec_ints.i)
  call void @llvm.lifetime.end.p0(i64 72, ptr nonnull %curve_lcl.i)
  %7 = load i32, ptr %key, align 8
  %cmp19.not = icmp eq i32 %7, 3
  %8 = load ptr, ptr %dp, align 8
  %call27 = call fastcc i32 @wc_ecc_curve_load(ptr noundef %8, ptr nonnull %curve_lcl, i8 noundef zeroext 59)
  %cmp28.not = icmp eq i32 %call27, 0
  br i1 %cmp19.not, label %if.end25, label %if.end56

if.end25:                                         ; preds = %if.end17
  br i1 %cmp28.not, label %if.end32, label %return

if.end32:                                         ; preds = %if.end25
  %call33 = call fastcc i32 @ecc_make_pub_ex(ptr noundef nonnull %key, ptr noundef nonnull %curve_lcl, ptr noundef null, ptr noundef null)
  %cmp34.not = icmp eq i32 %call33, 0
  br i1 %cmp34.not, label %if.end64, label %do.end37

do.end37:                                         ; preds = %if.end32
  call fastcc void @wc_ecc_curve_free(ptr noundef nonnull %curve_lcl)
  br label %return

if.end56:                                         ; preds = %if.end17
  br i1 %cmp28.not, label %if.end64, label %return

if.end64:                                         ; preds = %if.end32, %if.end56
  %call65 = call fastcc i32 @ecc_verify_hash(ptr noundef %r, ptr noundef %s, ptr noundef %hash, i32 noundef %hashlen, ptr noundef %res, ptr noundef nonnull %key, ptr noundef nonnull %curve_lcl)
  call fastcc void @wc_ecc_curve_free(ptr noundef nonnull %curve_lcl)
  br label %return

return:                                           ; preds = %wc_ecc_check_r_s_range.exit.thread48, %wc_ecc_check_r_s_range.exit.thread, %if.end56, %if.end25, %if.end, %lor.lhs.false10, %entry, %if.end64, %do.end37
  %retval.0 = phi i32 [ %call33, %do.end37 ], [ %call65, %if.end64 ], [ -170, %entry ], [ -170, %lor.lhs.false10 ], [ -170, %if.end ], [ %call27, %if.end25 ], [ %call27, %if.end56 ], [ %call.i, %wc_ecc_check_r_s_range.exit.thread ], [ %err.3.i.ph, %wc_ecc_check_r_s_range.exit.thread48 ]
  ret i32 %retval.0
}